; Function Attrs: nounwind uwtable
define ptr @PEM_ASN1_read(ptr noundef %0, ptr noundef %1, ptr noundef %2, ptr noundef %3, ptr noundef %4, ptr noundef %5) local_unnamed_addr #0 {
  %7 = tail call ptr @BIO_s_file() #10
  %8 = tail call ptr @BIO_new(ptr noundef %7) #10
  %9 = icmp eq ptr %8, null
  br i1 %9, label %10, label %11

10:                                               ; preds = %6
  tail call void @ERR_new() #10
  tail call void @ERR_set_debug(ptr noundef nonnull @.str.1, i32 noundef 116, ptr noundef nonnull @__func__.PEM_ASN1_read) #10
  tail call void (i32, i32, ptr, ...) @ERR_set_error(i32 noundef 9, i32 noundef 524295, ptr noundef null) #10
  br label %15

11:                                               ; preds = %6
  %12 = tail call i64 @BIO_ctrl(ptr noundef nonnull %8, i32 noundef 106, i64 noundef 0, ptr noundef %2) #10
  %13 = tail call ptr @PEM_ASN1_read_bio(ptr noundef %0, ptr noundef %1, ptr noundef nonnull %8, ptr noundef %3, ptr noundef %4, ptr noundef %5) #10
  %14 = tail call i32 @BIO_free(ptr noundef nonnull %8) #10
  br label %15

15:                                               ; preds = %11, %10
  %.0 = phi ptr [ null, %10 ], [ %13, %11 ]
  ret ptr %.0
}